target datalayout = "e-m:e-p270:32:32-p271:32:32-p272:64:64-i64:64-i128:128-f80:128-n8:16:32:64-S128"
target triple = "x86_64-pc-linux-gnu"

%struct.Aig_Man_t_ = type { ptr, ptr, ptr, ptr, ptr, ptr, ptr, %struct.Aig_Obj_t_, i32, i32, i32, i32, i32, i32, [7 x i32], i32, ptr, i32, ptr, i32, ptr, i32, i32, i32, ptr, i32, i32, i32, i32, i32, ptr, ptr, i32, ptr, ptr, i32, ptr, ptr, i32, i32, i32, ptr, ptr, ptr, ptr, ptr, ptr, ptr, ptr, ptr, ptr, ptr, ptr, ptr, ptr, i32, ptr, ptr, ptr, ptr, i32, i64, i64, i64, ptr, ptr }
%struct.Aig_Obj_t_ = type { %union.anon, ptr, ptr, i64, i32, i32, %union.anon.0 }
%union.anon = type { ptr }
%union.anon.0 = type { ptr }
%struct.Vec_Ptr_t_ = type { i32, i32, ptr }
%struct.Abc_Cex_t_ = type { i32, i32, i32, i32, i32, [0 x i32] }

@.str.4 = private unnamed_addr constant [40 x i8] c"Output %d is trivally SAT in frame 0. \0A\00", align 1

; Function Attrs: inlinehint nounwind uwtable
define internal i32 @Saig_ManPiNum(ptr noundef %0) #4 {
  %2 = alloca ptr, align 8
  store ptr %0, ptr %2, align 8, !tbaa !53
  %3 = load ptr, ptr %2, align 8, !tbaa !53
  %4 = getelementptr inbounds nuw %struct.Aig_Man_t_, ptr %3, i32 0, i32 9
  %5 = load i32, ptr %4, align 4, !tbaa !54
  ret i32 %5
}

; Function Attrs: inlinehint nounwind uwtable
define internal i32 @Aig_ManRegNum(ptr noundef %0) #4 {
  %2 = alloca ptr, align 8
  store ptr %0, ptr %2, align 8, !tbaa !53
  %3 = load ptr, ptr %2, align 8, !tbaa !53
  %4 = getelementptr inbounds nuw %struct.Aig_Man_t_, ptr %3, i32 0, i32 8
  %5 = load i32, ptr %4, align 8, !tbaa !73
  ret i32 %5
}

; Function Attrs: inlinehint nounwind uwtable
define internal ptr @Vec_PtrEntry(ptr noundef %0, i32 noundef %1) #4 {
  %3 = alloca ptr, align 8
  %4 = alloca i32, align 4
  store ptr %0, ptr %3, align 8, !tbaa !55
  store i32 %1, ptr %4, align 4, !tbaa !24
  %5 = load ptr, ptr %3, align 8, !tbaa !55
  %6 = getelementptr inbounds nuw %struct.Vec_Ptr_t_, ptr %5, i32 0, i32 2
  %7 = load ptr, ptr %6, align 8, !tbaa !56
  %8 = load i32, ptr %4, align 4, !tbaa !24
  %9 = sext i32 %8 to i64
  %10 = getelementptr inbounds ptr, ptr %7, i64 %9
  %11 = load ptr, ptr %10, align 8, !tbaa !58
  ret ptr %11
}

; Function Attrs: inlinehint nounwind uwtable
define internal i32 @Saig_ManPoNum(ptr noundef %0) #4 {
  %2 = alloca ptr, align 8
  store ptr %0, ptr %2, align 8, !tbaa !53
  %3 = load ptr, ptr %2, align 8, !tbaa !53
  %4 = getelementptr inbounds nuw %struct.Aig_Man_t_, ptr %3, i32 0, i32 10
  %5 = load i32, ptr %4, align 8, !tbaa !115
  ret i32 %5
}

; Function Attrs: nounwind uwtable
define i32 @Ssw_RarCheckTrivial(ptr noundef %0, i32 noundef %1) #0 {
  %3 = alloca i32, align 4
  %4 = alloca ptr, align 8
  %5 = alloca i32, align 4
  %6 = alloca ptr, align 8
  %7 = alloca i32, align 4
  %8 = alloca i32, align 4
  store ptr %0, ptr %4, align 8, !tbaa !53
  store i32 %1, ptr %5, align 4, !tbaa !24
  call void @llvm.lifetime.start.p0(i64 8, ptr %6) #11
  call void @llvm.lifetime.start.p0(i64 4, ptr %7) #11
  store i32 0, ptr %7, align 4, !tbaa !24
  br label %9

9:                                                ; preds = %76, %2
  %10 = load i32, ptr %7, align 4, !tbaa !24
  %11 = load ptr, ptr %4, align 8, !tbaa !53
  %12 = call i32 @Saig_ManPoNum(ptr noundef %11)
  %13 = icmp slt i32 %10, %12
  br i1 %13, label %14, label %20

14:                                               ; preds = %9
  %15 = load ptr, ptr %4, align 8, !tbaa !53
  %16 = getelementptr inbounds nuw %struct.Aig_Man_t_, ptr %15, i32 0, i32 3
  %17 = load ptr, ptr %16, align 8, !tbaa !94
  %18 = load i32, ptr %7, align 4, !tbaa !24
  %19 = call ptr @Vec_PtrEntry(ptr noundef %17, i32 noundef %18)
  store ptr %19, ptr %6, align 8, !tbaa !47
  br label %20

20:                                               ; preds = %14, %9
  %21 = phi i1 [ false, %9 ], [ true, %14 ]
  br i1 %21, label %22, label %79

22:                                               ; preds = %20
  %23 = load ptr, ptr %4, align 8, !tbaa !53
  %24 = getelementptr inbounds nuw %struct.Aig_Man_t_, ptr %23, i32 0, i32 12
  %25 = load i32, ptr %24, align 8, !tbaa !110
  %26 = icmp ne i32 %25, 0
  br i1 %26, label %27, label %37

27:                                               ; preds = %22
  %28 = load i32, ptr %7, align 4, !tbaa !24
  %29 = load ptr, ptr %4, align 8, !tbaa !53
  %30 = call i32 @Saig_ManPoNum(ptr noundef %29)
  %31 = load ptr, ptr %4, align 8, !tbaa !53
  %32 = getelementptr inbounds nuw %struct.Aig_Man_t_, ptr %31, i32 0, i32 12
  %33 = load i32, ptr %32, align 8, !tbaa !110
  %34 = sub nsw i32 %30, %33
  %35 = icmp sge i32 %28, %34
  br i1 %35, label %36, label %37

36:                                               ; preds = %27
  store i32 0, ptr %3, align 4
  store i32 1, ptr %8, align 4
  br label %80

37:                                               ; preds = %27, %22
  %38 = load ptr, ptr %6, align 8, !tbaa !47
  %39 = getelementptr inbounds nuw %struct.Aig_Obj_t_, ptr %38, i32 0, i32 3
  %40 = load i64, ptr %39, align 8
  %41 = lshr i64 %40, 3
  %42 = and i64 %41, 1
  %43 = trunc i64 %42 to i32
  %44 = icmp ne i32 %43, 0
  br i1 %44, label %45, label %75

45:                                               ; preds = %37
  %46 = load ptr, ptr %4, align 8, !tbaa !53
  %47 = getelementptr inbounds nuw %struct.Aig_Man_t_, ptr %46, i32 0, i32 51
  %48 = load ptr, ptr %47, align 8, !tbaa !134
  %49 = icmp ne ptr %48, null
  br i1 %49, label %50, label %56

50:                                               ; preds = %45
  %51 = load ptr, ptr %4, align 8, !tbaa !53
  %52 = getelementptr inbounds nuw %struct.Aig_Man_t_, ptr %51, i32 0, i32 51
  %53 = load ptr, ptr %52, align 8, !tbaa !134
  call void @free(ptr noundef %53) #11
  %54 = load ptr, ptr %4, align 8, !tbaa !53
  %55 = getelementptr inbounds nuw %struct.Aig_Man_t_, ptr %54, i32 0, i32 51
  store ptr null, ptr %55, align 8, !tbaa !134
  br label %57

56:                                               ; preds = %45
  br label %57

57:                                               ; preds = %56, %50
  %58 = load ptr, ptr %4, align 8, !tbaa !53
  %59 = call i32 @Aig_ManRegNum(ptr noundef %58)
  %60 = load ptr, ptr %4, align 8, !tbaa !53
  %61 = call i32 @Saig_ManPiNum(ptr noundef %60)
  %62 = call ptr @Abc_CexAlloc(i32 noundef %59, i32 noundef %61, i32 noundef 1)
  %63 = load ptr, ptr %4, align 8, !tbaa !53
  %64 = getelementptr inbounds nuw %struct.Aig_Man_t_, ptr %63, i32 0, i32 51
  store ptr %62, ptr %64, align 8, !tbaa !134
  %65 = load i32, ptr %7, align 4, !tbaa !24
  %66 = load ptr, ptr %4, align 8, !tbaa !53
  %67 = getelementptr inbounds nuw %struct.Aig_Man_t_, ptr %66, i32 0, i32 51
  %68 = load ptr, ptr %67, align 8, !tbaa !134
  %69 = getelementptr inbounds nuw %struct.Abc_Cex_t_, ptr %68, i32 0, i32 0
  store i32 %65, ptr %69, align 4, !tbaa !67
  %70 = load i32, ptr %5, align 4, !tbaa !24
  %71 = icmp ne i32 %70, 0
  br i1 %71, label %72, label %74

72:                                               ; preds = %57
  %73 = load i32, ptr %7, align 4, !tbaa !24
  call void (i32, ptr, ...) @Abc_Print(i32 noundef 1, ptr noundef @.str.4, i32 noundef %73)
  br label %74

74:                                               ; preds = %72, %57
  store i32 1, ptr %3, align 4
  store i32 1, ptr %8, align 4
  br label %80

75:                                               ; preds = %37
  br label %76

76:                                               ; preds = %75
  %77 = load i32, ptr %7, align 4, !tbaa !24
  %78 = add nsw i32 %77, 1
  store i32 %78, ptr %7, align 4, !tbaa !24
  br label %9, !llvm.loop !135

79:                                               ; preds = %20
  store i32 0, ptr %3, align 4
  store i32 1, ptr %8, align 4
  br label %80

80:                                               ; preds = %79, %74, %36
  call void @llvm.lifetime.end.p0(i64 4, ptr %7) #11
  call void @llvm.lifetime.end.p0(i64 8, ptr %6) #11
  %81 = load i32, ptr %3, align 4
  ret i32 %81
}