; Function Attrs: nounwind uwtable
define range(i32 0, 2) i32 @Ssw_RarCheckTrivial(ptr noundef captures(none) %0, i32 noundef %1) local_unnamed_addr #2 {
  %3 = getelementptr i8, ptr %0, i64 112
  %.val29 = load i32, ptr %3, align 8, !tbaa !79
  %4 = icmp sgt i32 %.val29, 0
  br i1 %4, label %.lr.ph, label %.critedge

.lr.ph:                                           ; preds = %2
  %5 = getelementptr inbounds nuw i8, ptr %0, i64 120
  %6 = load i32, ptr %5, align 8, !tbaa !95
  %.fr = freeze i32 %6
  %.not = icmp eq i32 %.fr, 0
  %7 = getelementptr inbounds nuw i8, ptr %0, i64 24
  %wide.trip.count43 = zext nneg i32 %.val29 to i64
  br i1 %.not, label %.lr.ph.split.us, label %.lr.ph.split.preheader

.lr.ph.split.preheader:                           ; preds = %.lr.ph
  %8 = sub i32 %.val29, %.fr
  %smax = tail call i32 @llvm.smax.i32(i32 %8, i32 0)
  %wide.trip.count = zext nneg i32 %smax to i64
  br label %.lr.ph.split

.lr.ph.split.us:                                  ; preds = %.lr.ph
  %9 = load ptr, ptr %7, align 8, !tbaa !78
  %10 = getelementptr i8, ptr %9, i64 8
  %.val26.us = load ptr, ptr %10, align 8, !tbaa !36
  br label %11

11:                                               ; preds = %17, %.lr.ph.split.us
  %indvars.iv40 = phi i64 [ %indvars.iv.next41, %17 ], [ 0, %.lr.ph.split.us ]
  %12 = getelementptr inbounds nuw ptr, ptr %.val26.us, i64 %indvars.iv40
  %13 = load ptr, ptr %12, align 8, !tbaa !38
  %14 = getelementptr inbounds nuw i8, ptr %13, i64 24
  %15 = load i64, ptr %14, align 8
  %16 = and i64 %15, 8
  %.not23.us = icmp eq i64 %16, 0
  br i1 %.not23.us, label %17, label %.split.us

17:                                               ; preds = %11
  %indvars.iv.next41 = add nuw nsw i64 %indvars.iv40, 1
  %exitcond44.not = icmp eq i64 %indvars.iv.next41, %wide.trip.count43
  br i1 %exitcond44.not, label %.critedge, label %11, !llvm.loop !121

.lr.ph.split:                                     ; preds = %.lr.ph.split.preheader, %34
  %indvars.iv = phi i64 [ 0, %.lr.ph.split.preheader ], [ %indvars.iv.next, %34 ]
  %exitcond.not = icmp eq i64 %indvars.iv, %wide.trip.count
  br i1 %exitcond.not, label %.critedge, label %18

18:                                               ; preds = %.lr.ph.split
  %19 = load ptr, ptr %7, align 8, !tbaa !78
  %20 = getelementptr i8, ptr %19, i64 8
  %.val26 = load ptr, ptr %20, align 8, !tbaa !36
  %21 = getelementptr inbounds nuw ptr, ptr %.val26, i64 %indvars.iv
  %22 = load ptr, ptr %21, align 8, !tbaa !38
  %23 = getelementptr inbounds nuw i8, ptr %22, i64 24
  %24 = load i64, ptr %23, align 8
  %25 = and i64 %24, 8
  %.not23 = icmp eq i64 %25, 0
  br i1 %.not23, label %34, label %.split.us

.split.us:                                        ; preds = %18, %11
  %.us-phi.in = phi i64 [ %indvars.iv40, %11 ], [ %indvars.iv, %18 ]
  %.us-phi = trunc i64 %.us-phi.in to i32
  %26 = getelementptr inbounds nuw i8, ptr %0, i64 408
  %27 = load ptr, ptr %26, align 8, !tbaa !122
  %.not24 = icmp eq ptr %27, null
  br i1 %.not24, label %29, label %28

28:                                               ; preds = %.split.us
  tail call void @free(ptr noundef nonnull %27) #20
  store ptr null, ptr %26, align 8, !tbaa !122
  br label %29

29:                                               ; preds = %.split.us, %28
  %30 = getelementptr i8, ptr %0, i64 104
  %.val27 = load i32, ptr %30, align 8, !tbaa !50
  %31 = getelementptr i8, ptr %0, i64 108
  %.val = load i32, ptr %31, align 4, !tbaa !24
  %32 = tail call ptr @Abc_CexAlloc(i32 noundef %.val27, i32 noundef %.val, i32 noundef 1) #20
  store ptr %32, ptr %26, align 8, !tbaa !122
  store i32 %.us-phi, ptr %32, align 4, !tbaa !53
  %.not25 = icmp eq i32 %1, 0
  br i1 %.not25, label %.critedge, label %33

33:                                               ; preds = %29
  tail call void (i32, ptr, ...) @Abc_Print(i32 poison, ptr noundef nonnull @.str.4, i32 noundef %.us-phi)
  br label %.critedge

34:                                               ; preds = %18
  %indvars.iv.next = add nuw nsw i64 %indvars.iv, 1
  %exitcond39.not = icmp eq i64 %indvars.iv.next, %wide.trip.count43
  br i1 %exitcond39.not, label %.critedge, label %.lr.ph.split, !llvm.loop !121

.critedge:                                        ; preds = %34, %.lr.ph.split, %17, %2, %29, %33
  %.020 = phi i32 [ 1, %33 ], [ 1, %29 ], [ 0, %2 ], [ 0, %17 ], [ 0, %.lr.ph.split ], [ 0, %34 ]
  ret i32 %.020
}